Certificate:
    Data:
        Version: 3 (0x2)
        Serial Number: 1234567890 (0x499602d2)
        Signature Algorithm: sha256WithRSAEncryption
        Issuer: CN = ca.example.com
        Validity
            Not Before: Oct 16 08:23:16 2022 GMT
            Not After : Oct 16 08:23:16 2023 GMT
        Subject: CN = test.example.com
        Subject Public Key Info:
            Public Key Algorithm: rsaEncryption
                RSA Public-Key: (2048 bit)
                Modulus:
                    00:b6:93:7a:b3:7b:94:1e:c7:16:ec:02:18:5b:12:
                    06:73:27:0d:9f:fa:cb:87:95:0f:43:49:b5:e2:88:
                    58:24:f8:17:79:e4:83:b1:0a:26:21:0a:c0:90:ee:
                    ee:ba:9f:40:69:00:22:49:6d:55:80:34:e7:3e:65:
                    a3:47:ea:a2:d9:32:83:c1:87:a6:d3:0d:46:e7:e0:
                    e6:0b:f6:be:c7:c7:7e:4d:d6:e2:66:f6:77:8b:11:
                    8e:88:ef:80:53:19:a9:2c:a9:98:23:8c:7f:05:95:
                    27:a6:10:f6:f3:39:4f:05:a2:a9:dd:f7:47:51:92:
                    56:47:d3:19:93:4b:46:16:bc:c0:ea:b7:02:4f:6c:
                    6c:99:a7:c2:ee:bc:1d:fe:78:d7:29:01:1d:05:5a:
                    f2:65:ed:5c:75:7d:99:da:45:6a:26:77:df:9f:b1:
                    13:32:61:6e:d0:0f:df:7d:12:1f:36:36:db:83:33:
                    56:db:fd:96:7b:b0:a1:ca:15:5e:13:1d:c3:f9:6c:
                    ac:da:3f:37:6e:41:bb:08:20:3d:00:62:4b:5c:f5:
                    6e:2d:ec:92:ae:cf:67:11:9b:d6:26:88:31:14:6d:
                    3c:20:56:59:a8:11:8c:d0:9a:ab:aa:01:59:88:74:
                    8c:f8:e2:0d:55:f1:46:10:31:45:b4:e2:fb:b2:96:
                    90:b1
                Exponent: 65537 (0x10001)
        X509v3 extensions:
            X509v3 Subject Key Identifier: 
                39:9B:46:7E:A5:E1:FC:68:77:12:D8:37:BB:56:9A:AC:82:81:EE:F7
            X509v3 Authority Key Identifier: 
                keyid:39:9B:46:7E:A5:E1:FC:68:77:12:D8:37:BB:56:9A:AC:82:81:EE:F7

            X509v3 Basic Constraints: critical
                CA:TRUE
    Signature Algorithm: sha256WithRSAEncryption
         65:a3:5d:67:f5:b6:a0:b2:26:8a:81:1b:22:05:1f:21:db:b5:
         ef:de:dd:0d:df:57:a6:e0:9f:d0:cf:9e:71:be:ee:77:7f:9f:
         71:47:15:4e:25:6a:2b:d1:f4:86:67:00:3b:f5:fe:c2:4f:05:
         92:6d:d9:16:1a:29:3b:cd:39:e1:41:42:f9:aa:a8:9c:a3:c0:
         c4:da:91:7f:25:51:9b:ab:02:f3:e6:2a:94:d7:df:9a:a9:fb:
         13:62:03:cc:53:ba:32:10:e6:b1:bb:6c:19:93:56:a5:e5:d6:
         01:fe:f4:1e:17:60:8d:74:61:5e:22:7f:95:44:4c:47:e6:c5:
         2f:ec:d7:80:66:b9:e4:91:16:de:70:9c:f8:ea:03:1c:07:20:
         b0:ff:0d:5e:8b:f5:6c:81:ce:65:a4:13:90:56:44:87:43:55:
         fc:ef:7d:fa:a1:0e:0f:e5:cb:d4:8c:c9:8b:9d:9d:73:44:4a:
         a5:3e:72:07:26:0b:23:3a:67:e8:c3:b2:80:0a:b6:74:fd:eb:
         e5:fe:81:04:06:b0:6a:de:f5:e0:7d:8b:de:0e:18:bc:16:b3:
         56:15:03:f6:36:e4:10:87:00:92:c4:a3:6f:9f:bf:25:13:a9:
         08:12:ea:27:4c:a2:53:31:d4:79:09:0e:5e:19:44:1d:0c:1c:
         d8:5a:8f:3f:02:b0:70:22:a6:90:a1:a2:d3:78:e1:f5:d6:c1:
         fe:63:ad:fb:da:84:51:25:9a:19:2d:1c:ab:27:92:f9:86:17:
         cc:02:ff:df:0d:53:1e:3f:f6:9d:9e:97:09:2b:c2:a4:7a:ef:
         43:e1:74:ca:ec:28:89:6e:05:68:de:19:98:6d:b5:8a:ae:0a:
         22:4a:6d:a0:7a:29:e0:93:b9:f3:51:6e:ea:cb:22:ab:a7:7b:
         9b:9a:0d:00:dc:37:f3:d4:b8:de:df:5b:3d:74:1b:d2:be:8e:
         3f:b8:96:f8:56:11:8d:06:70:22:95:ab:57:31:54:23:30:7c:
         06:17:81:84:68:32:f8:cd:a4:af:0b:9b:ad:42:73:6d:ec:15:
         a3:d5:8a:14:f1:86:6e:3b:21:9e:ec:68:cb:18:5c:35:70:83:
         e9:ce:56:3f:01:bb:de:8f:e7:a5:af:a9:94:80:0f:86:ce:98:
         e8:c9:66:6f:73:e5:60:ed:b4:a5:12:5e:3c:da:02:dc:f3:00:
         fa:98:cd:84:08:d3:57:a0:12:0c:d0:9a:86:94:4a:0a:78:86:
         19:01:8a:bf:a3:93:37:19:9d:4d:ba:35:cd:bd:50:e3:42:46:
         26:e1:b0:78:16:9b:4b:1c:92:8b:c0:44:70:23:72:8f:17:dc:
         80:ed:44:3d:f7:72:4d:21
-----BEGIN CERTIFICATE-----
MIIEBTCCAe2gAwIBAgIESZYC0jANBgkqhkiG9w0BAQsFADAZMRcwFQYDVQQDDA5j
YS5leGFtcGxlLmNvbTAeFw0yMjEwMTYwODIzMTZaFw0yMzEwMTYwODIzMTZaMBsx
GTAXBgNVBAMMEHRlc3QuZXhhbXBsZS5jb20wggEiMA0GCSqGSIb3DQEBAQUAA4IB
DwAwggEKAoIBAQC2k3qze5QexxbsAhhbEgZzJw2f+suHlQ9DSbXiiFgk+Bd55IOx
CiYhCsCQ7u66n0BpACJJbVWANOc+ZaNH6qLZMoPBh6bTDUbn4OYL9r7Hx35N1uJm
9neLEY6I74BTGaksqZgjjH8FlSemEPbzOU8Foqnd90dRklZH0xmTS0YWvMDqtwJP
bGyZp8LuvB3+eNcpAR0FWvJl7Vx1fZnaRWomd9+fsRMyYW7QD999Eh82NtuDM1bb
/ZZ7sKHKFV4THcP5bKzaPzduQbsIID0AYktc9W4t7JKuz2cRm9YmiDEUbTwgVlmo
EYzQmquqAVmIdIz44g1V8UYQMUW04vuylpCxAgMBAAGjUzBRMB0GA1UdDgQWBBQ5
m0Z+peH8aHcS2De7VpqsgoHu9zAfBgNVHSMEGDAWgBQ5m0Z+peH8aHcS2De7Vpqs
goHu9zAPBgNVHRMBAf8EBTADAQH/MA0GCSqGSIb3DQEBCwUAA4ICAQBlo11n9bag
siaKgRsiBR8h27Xv3t0N31em4J/Qz55xvu53f59xRxVOJWor0fSGZwA79f7CTwWS
bdkWGik7zTnhQUL5qqico8DE2pF/JVGbqwLz5iqU19+aqfsTYgPMU7oyEOaxu2wZ
k1al5dYB/vQeF2CNdGFeIn+VRExH5sUv7NeAZrnkkRbecJz46gMcByCw/w1ei/Vs
gc5lpBOQVkSHQ1X87336oQ4P5cvUjMmLnZ1zREqlPnIHJgsjOmfow7KACrZ0/evl
/oEEBrBq3vXgfYveDhi8FrNWFQP2NuQQhwCSxKNvn78lE6kIEuonTKJTMdR5CQ5e
GUQdDBzYWo8/ArBwIqaQoaLTeOH11sH+Y6372oRRJZoZLRyrJ5L5hhfMAv/fDVMe
P/adnpcJK8Kkeu9D4XTK7CiJbgVo3hmYbbWKrgoiSm2geingk7nzUW7qyyKrp3ub
mg0A3Dfz1Lje31s9dBvSvo4/uJb4VhGNBnAilatXMVQjMHwGF4GEaDL4zaSvC5ut
QnNt7BWj1YoU8YZuOyGe7GjLGFw1cIPpzlY/Abvej+elr6mUgA+GzpjoyWZvc+Vg
7bSlEl482gLc8wD6mM2ECNNXoBIM0JqGlEoKeIYZAYq/o5M3GZ1NujXNvVDjQkYm
4bB4FptLHJKLwERwI3KPF9yA7UQ993JNIQ==
-----END CERTIFICATE-----
