Certificate:
    Data:
        Version: 1 (0x0)
        Serial Number:
            2c:53:15:0d:2a:61:10:b4:2f:bb:d0:a9:6b:52:60:9d:bd:d2:48:3d
        Signature Algorithm: NULL
        Issuer: CN = ca.example.com
        Validity
            Not Before: Oct 16 08:23:18 2022 GMT
            Not After : Nov 15 08:23:18 2022 GMT
        Subject: CN = b.example.com
        Subject Public Key Info:
            Public Key Algorithm: rsaEncryption
                RSA Public-Key: (4096 bit)
                Modulus:
                    00:b2:fe:82:e8:1d:54:67:49:d1:85:69:eb:95:08:
                    43:cc:1c:68:85:38:e4:bb:a0:64:bd:6c:d8:92:1b:
                    9d:69:45:20:da:8c:cc:40:f4:8b:fd:c1:8c:ee:3b:
                    14:07:fd:57:d9:32:49:f5:fa:50:aa:7d:1c:42:ba:
                    15:39:ee:17:c3:7f:e8:fd:06:e0:49:a4:c0:fe:e6:
                    d5:f0:72:51:a0:e5:23:81:f9:24:23:ee:fd:1b:0e:
                    37:42:cd:17:b5:1b:5b:80:d8:33:9e:bc:05:88:9f:
                    04:7a:8c:ba:42:bd:02:60:2f:12:f2:66:e3:2c:e4:
                    da:6f:a6:2e:8e:a2:a9:66:62:90:21:d3:23:da:32:
                    d8:5b:54:20:55:0c:f7:36:7f:fd:84:1c:32:ef:a7:
                    34:11:89:a2:e5:dd:fa:67:1a:76:df:fe:c1:eb:97:
                    17:86:04:75:f1:07:ff:ec:3b:0b:59:39:93:9d:52:
                    e2:ab:6d:58:6f:05:19:98:b8:9e:3a:12:4d:c6:54:
                    73:0c:64:83:03:4c:f5:bc:4b:35:ea:7d:f7:49:61:
                    62:69:c3:ca:88:7c:a0:4b:62:de:6d:b0:18:0e:81:
                    82:95:e8:2c:8d:a0:72:2c:5e:6b:70:0e:29:a6:a8:
                    17:b4:d1:22:a7:67:4d:96:33:d0:cf:69:84:53:08:
                    b6:c1:4b:1b:bf:4f:ec:59:3a:5c:d0:5f:5b:f0:8b:
                    49:b0:f0:fc:1f:15:b1:ef:9d:b6:28:af:ec:74:63:
                    b1:13:41:16:c6:9d:6f:8f:8c:fa:27:8e:d8:ca:fe:
                    9e:01:82:2f:b3:b2:32:a8:3a:b3:bc:3b:c1:8d:95:
                    c6:cf:bc:ec:86:62:48:39:c4:67:36:47:e4:1a:f1:
                    c5:c2:7b:1e:94:b5:f6:71:4e:70:a9:65:ec:51:95:
                    f4:50:58:fc:13:0b:51:dc:4c:a9:8e:18:10:24:9d:
                    e9:d7:ca:a9:bd:fd:ab:f8:10:ae:03:97:de:67:30:
                    be:48:e3:8e:97:f9:0d:b2:a9:3c:e0:6e:4c:90:30:
                    69:ea:91:a1:b1:1d:32:db:55:1a:65:18:09:e7:13:
                    8a:26:c5:b1:a4:a5:dd:36:16:e4:c9:79:4e:ef:c4:
                    e7:f1:ab:f5:ad:1f:03:94:f4:c8:cc:07:e7:7e:46:
                    b9:05:b9:59:6f:07:11:ed:25:31:2d:b5:ca:ec:f3:
                    6a:46:65:c1:45:8f:6b:35:06:e8:18:5e:42:cf:06:
                    8b:c3:9f:bd:b3:81:59:5e:79:e6:36:fb:5b:79:98:
                    e9:5c:c5:80:26:2d:ed:23:25:86:2a:bd:ab:3f:27:
                    9c:8c:79:94:88:d7:0e:76:cc:a1:6f:5b:f3:4a:fa:
                    7e:ca:ef
                Exponent: 65537 (0x10001)
    Signature Algorithm: NULL
-----BEGIN CERTIFICATE-----
MIIEuDCCAqACFC6r8xb4jLJLUZNkwkwep1Dk6Kb6MA0GCSqGSIb3DQEBCwUAMBkx
FzAVBgNVBAMMDmNhLmV4YW1wbGUuY29tMB4XDTIyMTAxNjA4MjMxOFoXDTIyMTEx
NTA4MjMxOFowGDEWMBQGA1UEAwwNYi5leGFtcGxlLmNvbTCCAiIwDQYJKoZIhvcN
AQEBBQADggIPADCCAgoCggIBALL+gugdVGdJ0YVp65UIQ8wcaIU45LugZL1s2JIb
nWlFINqMzED0i/3BjO47FAf9V9kySfX6UKp9HEK6FTnuF8N/6P0G4EmkwP7m1fBy
UaDlI4H5JCPu/RsON0LNF7UbW4DYM568BYifBHqMukK9AmAvEvJm4yzk2m+mLo6i
qWZikCHTI9oy2FtUIFUM9zZ//YQcMu+nNBGJouXd+mcadt/+weuXF4YEdfEH/+w7
C1k5k51S4qttWG8FGZi4njoSTcZUcwxkgwNM9bxLNep990lhYmnDyoh8oEti3m2w
GA6BgpXoLI2gcixea3AOKaaoF7TRIqdnTZYz0M9phFMItsFLG79P7Fk6XNBfW/CL
SbDw/B8Vse+dtiiv7HRjsRNBFsadb4+M+ieO2Mr+ngGCL7OyMqg6s7w7wY2Vxs+8
7IZiSDnEZzZH5BrxxcJ7HpS19nFOcKll7FGV9FBY/BMLUdxMqY4YECSd6dfKqb39
q/gQrgOX3mcwvkjjjpf5DbKpPOBuTJAwaeqRobEdMttVGmUYCecTiibFsaSl3TYW
5Ml5Tu/E5/Gr9a0fA5T0yMwH535GuQW5WW8HEe0lMS21yuzzakZlwUWPazUG6Bhe
Qs8Gi8OfvbOBWV555jb7W3mY6VzFgCYt7SMlhiq9qz8nnIx5lIjXDnbMoW9b80r6
fsrvAgMBAAEwDQYJKoZIhvcNAQELBQADggIBAIZyhz8CiE1hZW2ll7LqB8948Nj9
5mb3sSSV8Ta0Jq9N4LMBo3ik7OIW/X/0iBSjLLkT3sJ97e09x63X+bymILUkvFuz
1uNF+PMTYHCi6UE37o0BKsEZTfn3rXNHH0N7GnYNoY3tKWidNgzuGw66B6gXzGeN
nSLgKZOOm4xwem4bC/LfZ0V8qqlNEt8/dhsMkj0UI+ukzUwssGOPjdL7GtIWrLvd
t0vtgqvQnufqKLT6mqNELlAUxByWjwr4pOiQVzD7n+8XuUCddoRwehME8v++HmPD
slLcQ0EiNe4VNNTUnC+0Pfa0NgXpLlVuAkkeY++XTAleAYlwbA6BMjkLs7eXuxIo
z6bqe0xuIgLDdRVmEb0iTHLBSU9vxbtkPWOLhE1NSQFb7BUl8YCfuV9aeg0o1Cuz
DsELrsQHdwHZy1DNOuEXV2PHVDZTtP9/3Gx7xItu3bMhlNp2jPO3hX0vp0D2iCRM
LgOWYko2P2CXXTsjbx0j3PCHlWFEnqts+UDqgHuhkxTmxJuDNPjjLVDvSgwfhAGE
ZK7XfPuZG5tSEg9X326yaDLNwDc8GKnORysYrnTCkWomE3BvI8V5Qw2mLUgPeZJj
bUOkfJxjt/URoHKoCh1gsWq1MgYi3AjRRIs5WNROUpwV+3FfQ/dYsgNNyfeDVJGK
77KUHEargtRRih1R
-----END CERTIFICATE-----
